target datalayout = "e-m:e-p270:32:32-p271:32:32-p272:64:64-i64:64-i128:128-f80:128-n8:16:32:64-S128"
target triple = "x86_64-pc-linux-gnu"

; Function Attrs: mustprogress nounwind uwtable
define hidden noundef i32 @_ZN2os9vsnprintfEPcmPKcP13__va_list_tag(ptr noundef %0, i64 noundef %1, ptr noundef %2, ptr noundef %3) #1 align 2 {
  %5 = alloca ptr, align 8
  %6 = alloca i64, align 8
  %7 = alloca ptr, align 8
  %8 = alloca ptr, align 8
  %9 = alloca i32, align 4
  store ptr %0, ptr %5, align 8
  store i64 %1, ptr %6, align 8
  store ptr %2, ptr %7, align 8
  store ptr %3, ptr %8, align 8
  %10 = load ptr, ptr %5, align 8
  %11 = load i64, ptr %6, align 8
  %12 = load ptr, ptr %7, align 8
  %13 = load ptr, ptr %8, align 8
  %14 = call i32 @vsnprintf(ptr noundef %10, i64 noundef %11, ptr noundef %12, ptr noundef %13) #13
  store i32 %14, ptr %9, align 4
  %15 = load i32, ptr %9, align 4
  %16 = icmp slt i32 %15, 0
  br i1 %16, label %17, label %25

17:                                               ; preds = %4
  %18 = load i64, ptr %6, align 8
  %19 = icmp ugt i64 %18, 0
  br i1 %19, label %20, label %25

20:                                               ; preds = %17
  %21 = load ptr, ptr %5, align 8
  %22 = load i64, ptr %6, align 8
  %23 = sub i64 %22, 1
  %24 = getelementptr inbounds i8, ptr %21, i64 %23
  store i8 0, ptr %24, align 1
  br label %25

25:                                               ; preds = %20, %17, %4
  %26 = load i32, ptr %9, align 4
  ret i32 %26
}