; Function Attrs: mustprogress nofree nounwind uwtable
define hidden noundef i32 @_ZN2os9vsnprintfEPcmPKcP13__va_list_tag(ptr nocapture noundef %0, i64 noundef %1, ptr nocapture noundef readonly %2, ptr noundef %3) local_unnamed_addr #0 align 2 {
  %5 = tail call i32 @vsnprintf(ptr noundef %0, i64 noundef %1, ptr noundef %2, ptr noundef %3) #28
  %6 = icmp slt i32 %5, 0
  %7 = icmp ne i64 %1, 0
  %or.cond = and i1 %7, %6
  br i1 %or.cond, label %8, label %11

8:                                                ; preds = %4
  %9 = getelementptr i8, ptr %0, i64 %1
  %10 = getelementptr i8, ptr %9, i64 -1
  store i8 0, ptr %10, align 1
  br label %11

11:                                               ; preds = %8, %4
  ret i32 %5
}